target datalayout = "e-m:e-p270:32:32-p271:32:32-p272:64:64-i64:64-i128:128-f80:128-n8:16:32:64-S128"
target triple = "x86_64-pc-linux-gnu"

%struct.darktable_t = type { %struct.dt_codepath_t, i32, i32, ptr, ptr, ptr, ptr, ptr, ptr, ptr, ptr, ptr, ptr, ptr, ptr, ptr, ptr, ptr, ptr, ptr, ptr, ptr, ptr, ptr, ptr, ptr, ptr, ptr, ptr, ptr, [64 x %struct.dt_pthread_mutex_t], %struct.dt_pthread_mutex_t, %struct.dt_pthread_mutex_t, %struct.dt_pthread_mutex_t, %struct.dt_pthread_mutex_t, %struct.dt_pthread_mutex_t, ptr, ptr, ptr, ptr, ptr, ptr, ptr, ptr, ptr, ptr, ptr, ptr, ptr, %struct.dt_lua_state_t, ptr, double, ptr, i32, [47 x i32], i32, i32, ptr, ptr, %struct.dt_sys_resources_t, %struct.dt_backthumb_t, %struct.dt_gimp_t }
%struct.dt_codepath_t = type { i8, [3 x i8] }
%struct.dt_pthread_mutex_t = type { %union.pthread_mutex_t }
%union.pthread_mutex_t = type { %struct.__pthread_mutex_s }
%struct.__pthread_mutex_s = type { i32, i32, i32, i32, i32, i16, i16, %struct.__pthread_internal_list }
%struct.__pthread_internal_list = type { ptr, ptr }
%struct.dt_lua_state_t = type { i32 }
%struct.dt_sys_resources_t = type { i64, i64, ptr, ptr, i32 }
%struct.dt_backthumb_t = type { double, double, i32, i32, i32, i32 }
%struct.dt_gimp_t = type { i32, ptr, ptr, i32, i32 }
%struct._GdkRGBA = type { double, double, double, double }
%struct._DtBauhausWidget = type { %struct._GtkDrawingArea, i32, ptr, ptr, i32, [256 x i8], i32, ptr, i32, ptr, ptr, i32, ptr, i32, i32, i32, %struct._GtkBorder, %struct._GtkBorder, i32, %union.dt_bauhaus_data_t }
%struct._GtkDrawingArea = type { %struct._GtkWidget, ptr }
%struct._GtkWidget = type { %struct._GObject, ptr }
%struct._GObject = type { %struct._GTypeInstance, i32, ptr }
%struct._GTypeInstance = type { ptr }
%struct._GtkBorder = type { i16, i16, i16, i16 }
%union.dt_bauhaus_data_t = type { %struct.dt_bauhaus_slider_data_t }
%struct.dt_bauhaus_slider_data_t = type { float, float, float, float, float, float, float, float, float, float, i32, ptr, i32, ptr, i8, ptr, float, float, i8, i32, ptr }
%struct.dt_bauhaus_t = type { ptr, %struct.dt_bauhaus_popup_t, ptr, float, float, i32, i32, float, [180 x i8], i32, i32, [2 x i32], i32, ptr, ptr, float, float, float, float, float, ptr, ptr, i32, i32, i32, %struct._GdkRGBA, %struct._GdkRGBA, %struct._GdkRGBA, %struct._GdkRGBA, %struct._GdkRGBA, %struct._GdkRGBA, %struct._GdkRGBA, %struct._GdkRGBA, %struct._GdkRGBA, %struct._GdkRGBA, %struct._GdkRGBA, %struct._GdkRGBA, %struct._GdkRGBA, %struct._GdkRGBA, %struct._GdkRGBA, [3 x %struct._GdkRGBA], [5 x %struct._GdkRGBA] }
%struct.dt_bauhaus_popup_t = type { ptr, ptr, %struct._GtkBorder, %struct._cairo_rectangle_int, i32, i32, i32 }
%struct._cairo_rectangle_int = type { i32, i32, i32, i32 }
%struct._GdkEventButton = type { i32, ptr, i8, i32, double, double, ptr, i32, i32, ptr, double, double }

@darktable = external global %struct.darktable_t, align 8
@dt_modifier_shortcuts = external global i32, align 4

; Function Attrs: inlinehint nounwind uwtable
define internal i32 @dt_modifier_is(i32 noundef %0, i32 noundef %1) #4 {
  %3 = alloca i32, align 4
  %4 = alloca i32, align 4
  %5 = alloca i32, align 4
  store i32 %0, ptr %3, align 4, !tbaa !13
  store i32 %1, ptr %4, align 4, !tbaa !13
  call void @llvm.lifetime.start.p0(i64 4, ptr %5) #13
  %6 = call i32 @gtk_accelerator_get_default_mod_mask()
  store i32 %6, ptr %5, align 4, !tbaa !13
  %7 = load i32, ptr %3, align 4, !tbaa !13
  %8 = load i32, ptr @dt_modifier_shortcuts, align 4, !tbaa !13
  %9 = or i32 %7, %8
  %10 = load i32, ptr %5, align 4, !tbaa !13
  %11 = and i32 %9, %10
  %12 = load i32, ptr %4, align 4, !tbaa !13
  %13 = icmp eq i32 %11, %12
  %14 = zext i1 %13 to i32
  call void @llvm.lifetime.end.p0(i64 4, ptr %5) #13
  ret i32 %14
}

; Function Attrs: nounwind uwtable
define internal void @_popup_reject() #0 {
  %1 = alloca ptr, align 8
  call void @llvm.lifetime.start.p0(i64 8, ptr %1) #13
  %2 = load ptr, ptr getelementptr inbounds nuw (%struct.darktable_t, ptr @darktable, i32 0, i32 17), align 8, !tbaa !78
  %3 = getelementptr inbounds nuw %struct.dt_bauhaus_t, ptr %2, i32 0, i32 0
  %4 = load ptr, ptr %3, align 8, !tbaa !104
  store ptr %4, ptr %1, align 8, !tbaa !17
  %5 = load ptr, ptr %1, align 8, !tbaa !17
  %6 = getelementptr inbounds nuw %struct._DtBauhausWidget, ptr %5, i32 0, i32 1
  %7 = load i32, ptr %6, align 8, !tbaa !139
  %8 = icmp eq i32 %7, 1
  br i1 %8, label %9, label %15

9:                                                ; preds = %0
  %10 = load ptr, ptr %1, align 8, !tbaa !17
  %11 = load ptr, ptr %1, align 8, !tbaa !17
  %12 = getelementptr inbounds nuw %struct._DtBauhausWidget, ptr %11, i32 0, i32 19
  %13 = getelementptr inbounds nuw %struct.dt_bauhaus_slider_data_t, ptr %12, i32 0, i32 1
  %14 = load float, ptr %13, align 4, !tbaa !164
  call void @_slider_set_normalized(ptr noundef %10, float noundef %14)
  br label %15

15:                                               ; preds = %9, %0
  call void @_popup_hide()
  call void @llvm.lifetime.end.p0(i64 8, ptr %1) #13
  ret void
}

; Function Attrs: nounwind uwtable
define internal i32 @_popup_button_press(ptr noundef %0, ptr noundef %1, ptr noundef %2) #0 {
  %4 = alloca i32, align 4
  %5 = alloca ptr, align 8
  %6 = alloca ptr, align 8
  %7 = alloca ptr, align 8
  %8 = alloca ptr, align 8
  %9 = alloca ptr, align 8
  store ptr %0, ptr %5, align 8, !tbaa !15
  store ptr %1, ptr %6, align 8, !tbaa !185
  store ptr %2, ptr %7, align 8, !tbaa !32
  %10 = load ptr, ptr %6, align 8, !tbaa !185
  %11 = getelementptr inbounds nuw %struct._GdkEventButton, ptr %10, i32 0, i32 1
  %12 = load ptr, ptr %11, align 8, !tbaa !187
  %13 = load ptr, ptr %5, align 8, !tbaa !15
  %14 = call ptr @gtk_widget_get_window(ptr noundef %13)
  %15 = icmp ne ptr %12, %14
  br i1 %15, label %16, label %17

16:                                               ; preds = %3
  call void @_popup_reject()
  store i32 1, ptr %4, align 4
  br label %94

17:                                               ; preds = %3
  call void @llvm.lifetime.start.p0(i64 8, ptr %8) #13
  %18 = load ptr, ptr getelementptr inbounds nuw (%struct.darktable_t, ptr @darktable, i32 0, i32 17), align 8, !tbaa !78
  store ptr %18, ptr %8, align 8, !tbaa !79
  call void @llvm.lifetime.start.p0(i64 8, ptr %9) #13
  %19 = load ptr, ptr %8, align 8, !tbaa !79
  %20 = getelementptr inbounds nuw %struct.dt_bauhaus_t, ptr %19, i32 0, i32 0
  %21 = load ptr, ptr %20, align 8, !tbaa !104
  store ptr %21, ptr %9, align 8, !tbaa !17
  %22 = load ptr, ptr %6, align 8, !tbaa !185
  %23 = getelementptr inbounds nuw %struct._GdkEventButton, ptr %22, i32 0, i32 8
  %24 = load i32, ptr %23, align 4, !tbaa !189
  %25 = icmp eq i32 %24, 1
  br i1 %25, label %26, label %79

26:                                               ; preds = %17
  %27 = load ptr, ptr %9, align 8, !tbaa !17
  %28 = call i64 @gtk_widget_get_type() #14
  %29 = call ptr @g_type_check_instance_cast(ptr noundef %27, i64 noundef %28)
  call void @gtk_widget_set_state_flags(ptr noundef %29, i32 noundef 32, i32 noundef 0)
  %30 = load ptr, ptr %9, align 8, !tbaa !17
  %31 = getelementptr inbounds nuw %struct._DtBauhausWidget, ptr %30, i32 0, i32 1
  %32 = load i32, ptr %31, align 8, !tbaa !139
  %33 = icmp eq i32 %32, 2
  br i1 %33, label %34, label %68

34:                                               ; preds = %26
  %35 = load ptr, ptr %6, align 8, !tbaa !185
  %36 = getelementptr inbounds nuw %struct._GdkEventButton, ptr %35, i32 0, i32 3
  %37 = load i32, ptr %36, align 4, !tbaa !190
  %38 = load ptr, ptr %8, align 8, !tbaa !79
  %39 = getelementptr inbounds nuw %struct.dt_bauhaus_t, ptr %38, i32 0, i32 5
  %40 = load i32, ptr %39, align 8, !tbaa !191
  %41 = call i32 @dt_gui_long_click(i32 noundef %37, i32 noundef %40)
  %42 = icmp ne i32 %41, 0
  br i1 %42, label %68, label %43

43:                                               ; preds = %34
  %44 = load ptr, ptr %6, align 8, !tbaa !185
  %45 = getelementptr inbounds nuw %struct._GdkEventButton, ptr %44, i32 0, i32 7
  %46 = load i32, ptr %45, align 8, !tbaa !192
  %47 = call i32 @dt_modifier_is(i32 noundef %46, i32 noundef 4)
  %48 = icmp ne i32 %47, 0
  br i1 %48, label %49, label %63

49:                                               ; preds = %43
  %50 = load ptr, ptr %9, align 8, !tbaa !17
  %51 = getelementptr inbounds nuw %struct._DtBauhausWidget, ptr %50, i32 0, i32 3
  %52 = load ptr, ptr %51, align 8, !tbaa !193
  %53 = icmp ne ptr %52, null
  br i1 %53, label %54, label %63

54:                                               ; preds = %49
  %55 = load ptr, ptr %9, align 8, !tbaa !17
  %56 = getelementptr inbounds nuw %struct._DtBauhausWidget, ptr %55, i32 0, i32 2
  %57 = load ptr, ptr %56, align 8, !tbaa !194
  %58 = load ptr, ptr %9, align 8, !tbaa !17
  %59 = call i64 @gtk_widget_get_type() #14
  %60 = call ptr @g_type_check_instance_cast(ptr noundef %58, i64 noundef %59)
  %61 = call i32 @dt_gui_presets_autoapply_for_module(ptr noundef %57, ptr noundef %60)
  %62 = icmp ne i32 %61, 0
  br i1 %62, label %67, label %63

63:                                               ; preds = %54, %49, %43
  %64 = load ptr, ptr %9, align 8, !tbaa !17
  %65 = call i64 @gtk_widget_get_type() #14
  %66 = call ptr @g_type_check_instance_cast(ptr noundef %64, i64 noundef %65)
  call void @dt_bauhaus_widget_reset(ptr noundef %66)
  br label %67

67:                                               ; preds = %63, %54
  br label %68

68:                                               ; preds = %67, %34, %26
  %69 = load ptr, ptr %8, align 8, !tbaa !79
  %70 = getelementptr inbounds nuw %struct.dt_bauhaus_t, ptr %69, i32 0, i32 6
  store i32 1, ptr %70, align 4, !tbaa !150
  %71 = load ptr, ptr %6, align 8, !tbaa !185
  %72 = getelementptr inbounds nuw %struct._GdkEventButton, ptr %71, i32 0, i32 7
  %73 = load i32, ptr %72, align 8, !tbaa !192
  %74 = or i32 %73, 256
  store i32 %74, ptr %72, align 8, !tbaa !192
  %75 = load ptr, ptr %5, align 8, !tbaa !15
  %76 = load ptr, ptr %6, align 8, !tbaa !185
  %77 = load ptr, ptr %7, align 8, !tbaa !32
  %78 = call i32 @_window_motion_notify(ptr noundef %75, ptr noundef %76, ptr noundef %77)
  br label %93

79:                                               ; preds = %17
  %80 = load ptr, ptr %6, align 8, !tbaa !185
  %81 = getelementptr inbounds nuw %struct._GdkEventButton, ptr %80, i32 0, i32 8
  %82 = load i32, ptr %81, align 4, !tbaa !189
  %83 = icmp eq i32 %82, 2
  br i1 %83, label %84, label %91

84:                                               ; preds = %79
  %85 = load ptr, ptr %9, align 8, !tbaa !17
  %86 = getelementptr inbounds nuw %struct._DtBauhausWidget, ptr %85, i32 0, i32 1
  %87 = load i32, ptr %86, align 8, !tbaa !139
  %88 = icmp eq i32 %87, 1
  br i1 %88, label %89, label %91

89:                                               ; preds = %84
  %90 = load ptr, ptr %9, align 8, !tbaa !17
  call void @_slider_zoom_range(ptr noundef %90, float noundef 0.000000e+00)
  br label %92

91:                                               ; preds = %84, %79
  call void @_popup_reject()
  br label %92

92:                                               ; preds = %91, %89
  br label %93

93:                                               ; preds = %92, %68
  store i32 1, ptr %4, align 4
  call void @llvm.lifetime.end.p0(i64 8, ptr %9) #13
  call void @llvm.lifetime.end.p0(i64 8, ptr %8) #13
  br label %94

94:                                               ; preds = %93, %16
  %95 = load i32, ptr %4, align 4
  ret i32 %95
}