; Function Attrs: nounwind uwtable
define internal noundef i32 @_popup_button_press(ptr noundef %0, ptr noundef captures(none) %1, ptr readnone captures(none) %2) #0 {
  %4 = getelementptr inbounds nuw i8, ptr %1, i64 8
  %5 = load ptr, ptr %4, align 8, !tbaa !154
  %6 = tail call ptr @gtk_widget_get_window(ptr noundef %0) #19
  %.not = icmp eq ptr %5, %6
  %7 = load ptr, ptr getelementptr inbounds nuw (i8, ptr @darktable, i64 128), align 8, !tbaa !67
  %8 = load ptr, ptr %7, align 8, !tbaa !94
  br i1 %.not, label %16, label %9

9:                                                ; preds = %3
  %10 = getelementptr inbounds nuw i8, ptr %8, i64 40
  %11 = load i32, ptr %10, align 8, !tbaa !105
  %12 = icmp eq i32 %11, 1
  br i1 %12, label %13, label %_popup_reject.exit

13:                                               ; preds = %9
  %14 = getelementptr inbounds nuw i8, ptr %8, i64 412
  %15 = load float, ptr %14, align 4, !tbaa !106
  tail call fastcc void @_slider_set_normalized(ptr noundef nonnull %8, float noundef %15)
  br label %_popup_reject.exit

_popup_reject.exit:                               ; preds = %9, %13
  tail call fastcc void @_popup_hide()
  br label %64

16:                                               ; preds = %3
  %17 = getelementptr inbounds nuw i8, ptr %1, i64 52
  %18 = load i32, ptr %17, align 4, !tbaa !156
  switch i32 %18, label %59 [
    i32 1, label %19
    i32 2, label %54
  ]

19:                                               ; preds = %16
  %20 = tail call i64 @gtk_widget_get_type() #20
  %21 = tail call ptr @g_type_check_instance_cast(ptr noundef %8, i64 noundef %20) #19
  tail call void @gtk_widget_set_state_flags(ptr noundef %21, i32 noundef 32, i32 noundef 0) #19
  %22 = getelementptr inbounds nuw i8, ptr %8, i64 40
  %23 = load i32, ptr %22, align 8, !tbaa !105
  %24 = icmp eq i32 %23, 2
  br i1 %24, label %25, label %48

25:                                               ; preds = %19
  %26 = getelementptr inbounds nuw i8, ptr %1, i64 20
  %27 = load i32, ptr %26, align 4, !tbaa !157
  %28 = getelementptr inbounds nuw i8, ptr %7, i64 80
  %29 = load i32, ptr %28, align 8, !tbaa !158
  %30 = tail call i32 @dt_gui_long_click(i32 noundef %27, i32 noundef %29) #19
  %.not21 = icmp eq i32 %30, 0
  br i1 %.not21, label %31, label %48

31:                                               ; preds = %25
  %32 = getelementptr inbounds nuw i8, ptr %1, i64 48
  %33 = load i32, ptr %32, align 8, !tbaa !159
  %34 = tail call i32 @gtk_accelerator_get_default_mod_mask() #19
  %35 = load i32, ptr @dt_modifier_shortcuts, align 4, !tbaa !79
  %36 = or i32 %35, %33
  %37 = and i32 %36, %34
  %.not26 = icmp eq i32 %37, 4
  br i1 %.not26, label %38, label %46

38:                                               ; preds = %31
  %39 = getelementptr inbounds nuw i8, ptr %8, i64 56
  %40 = load ptr, ptr %39, align 8, !tbaa !160
  %.not23 = icmp eq ptr %40, null
  br i1 %.not23, label %46, label %41

41:                                               ; preds = %38
  %42 = getelementptr inbounds nuw i8, ptr %8, i64 48
  %43 = load ptr, ptr %42, align 8, !tbaa !161
  %44 = tail call ptr @g_type_check_instance_cast(ptr noundef nonnull %8, i64 noundef %20) #19
  %45 = tail call i32 @dt_gui_presets_autoapply_for_module(ptr noundef %43, ptr noundef %44) #19
  %.not24 = icmp eq i32 %45, 0
  br i1 %.not24, label %46, label %48

46:                                               ; preds = %41, %38, %31
  %47 = tail call ptr @g_type_check_instance_cast(ptr noundef nonnull %8, i64 noundef %20) #19
  tail call void @dt_bauhaus_widget_reset(ptr noundef %47)
  br label %48

48:                                               ; preds = %41, %46, %25, %19
  %49 = getelementptr inbounds nuw i8, ptr %7, i64 84
  store i32 1, ptr %49, align 4, !tbaa !124
  %50 = getelementptr inbounds nuw i8, ptr %1, i64 48
  %51 = load i32, ptr %50, align 8, !tbaa !159
  %52 = or i32 %51, 256
  store i32 %52, ptr %50, align 8, !tbaa !159
  %53 = tail call i32 @_window_motion_notify(ptr noundef %0, ptr noundef nonnull %1, ptr poison)
  br label %64

54:                                               ; preds = %16
  %55 = getelementptr inbounds nuw i8, ptr %8, i64 40
  %56 = load i32, ptr %55, align 8, !tbaa !105
  %57 = icmp eq i32 %56, 1
  br i1 %57, label %58, label %_popup_reject.exit25

58:                                               ; preds = %54
  tail call fastcc void @_slider_zoom_range(ptr noundef nonnull %8, float noundef 0.000000e+00)
  br label %64

59:                                               ; preds = %16
  %.phi.trans.insert = getelementptr inbounds nuw i8, ptr %8, i64 40
  %.pre = load i32, ptr %.phi.trans.insert, align 8, !tbaa !105
  %60 = icmp eq i32 %.pre, 1
  br i1 %60, label %61, label %_popup_reject.exit25

61:                                               ; preds = %59
  %62 = getelementptr inbounds nuw i8, ptr %8, i64 412
  %63 = load float, ptr %62, align 4, !tbaa !106
  tail call fastcc void @_slider_set_normalized(ptr noundef nonnull %8, float noundef %63)
  br label %_popup_reject.exit25

_popup_reject.exit25:                             ; preds = %54, %59, %61
  tail call fastcc void @_popup_hide()
  br label %64

64:                                               ; preds = %48, %_popup_reject.exit25, %58, %_popup_reject.exit
  ret i32 1
}